target datalayout = "e-m:e-p270:32:32-p271:32:32-p272:64:64-i64:64-i128:128-f80:128-n8:16:32:64-S128"
target triple = "x86_64-pc-linux-gnu"

%"class.std::__cxx11::basic_string" = type { %"struct.std::__cxx11::basic_string<char>::_Alloc_hider", i64, %union.anon.0 }
%"struct.std::__cxx11::basic_string<char>::_Alloc_hider" = type { ptr }
%union.anon.0 = type { i64, [8 x i8] }
%"struct.std::__detail::_Hash_node_base" = type { ptr }
%"struct.std::__detail::_Prime_rehash_policy" = type { float, i64 }
%"class.LIEF::DEX::File" = type { %"class.LIEF::Object", %"class.std::__cxx11::basic_string", %"class.std::__cxx11::basic_string", %"class.LIEF::DEX::Header", %"class.std::unordered_map.40", %"class.std::vector.60", %"class.std::vector.65", %"class.std::vector.70", %"class.std::vector.75", %"class.std::vector.80", %"class.LIEF::DEX::MapList", %"class.std::vector.89", %"class.std::vector.94" }
%"class.LIEF::Object" = type { ptr }
%"class.LIEF::DEX::Header" = type { %"class.LIEF::Object", %"struct.std::array", i32, %"struct.std::array.39", i32, i32, i32, i32, i32, i32, i32, i32, i32, i32, i32, i32, i32, i32, i32, i32, i32, i32, i32, i32 }
%"struct.std::array" = type { [8 x i8] }
%"struct.std::array.39" = type { [20 x i8] }
%"class.std::unordered_map.40" = type { %"class.std::_Hashtable.41" }
%"class.std::_Hashtable.41" = type { ptr, i64, %"struct.std::__detail::_Hash_node_base", i64, %"struct.std::__detail::_Prime_rehash_policy", ptr }
%"class.std::vector.60" = type { %"struct.std::_Vector_base.61" }
%"struct.std::_Vector_base.61" = type { %"struct.std::_Vector_base<std::unique_ptr<LIEF::DEX::Method>, std::allocator<std::unique_ptr<LIEF::DEX::Method>>>::_Vector_impl" }
%"struct.std::_Vector_base<std::unique_ptr<LIEF::DEX::Method>, std::allocator<std::unique_ptr<LIEF::DEX::Method>>>::_Vector_impl" = type { %"struct.std::_Vector_base<std::unique_ptr<LIEF::DEX::Method>, std::allocator<std::unique_ptr<LIEF::DEX::Method>>>::_Vector_impl_data" }
%"struct.std::_Vector_base<std::unique_ptr<LIEF::DEX::Method>, std::allocator<std::unique_ptr<LIEF::DEX::Method>>>::_Vector_impl_data" = type { ptr, ptr, ptr }
%"class.std::vector.65" = type { %"struct.std::_Vector_base.66" }
%"struct.std::_Vector_base.66" = type { %"struct.std::_Vector_base<std::unique_ptr<LIEF::DEX::Field>, std::allocator<std::unique_ptr<LIEF::DEX::Field>>>::_Vector_impl" }
%"struct.std::_Vector_base<std::unique_ptr<LIEF::DEX::Field>, std::allocator<std::unique_ptr<LIEF::DEX::Field>>>::_Vector_impl" = type { %"struct.std::_Vector_base<std::unique_ptr<LIEF::DEX::Field>, std::allocator<std::unique_ptr<LIEF::DEX::Field>>>::_Vector_impl_data" }
%"struct.std::_Vector_base<std::unique_ptr<LIEF::DEX::Field>, std::allocator<std::unique_ptr<LIEF::DEX::Field>>>::_Vector_impl_data" = type { ptr, ptr, ptr }
%"class.std::vector.70" = type { %"struct.std::_Vector_base.71" }
%"struct.std::_Vector_base.71" = type { %"struct.std::_Vector_base<std::unique_ptr<std::__cxx11::basic_string<char>>, std::allocator<std::unique_ptr<std::__cxx11::basic_string<char>>>>::_Vector_impl" }
%"struct.std::_Vector_base<std::unique_ptr<std::__cxx11::basic_string<char>>, std::allocator<std::unique_ptr<std::__cxx11::basic_string<char>>>>::_Vector_impl" = type { %"struct.std::_Vector_base<std::unique_ptr<std::__cxx11::basic_string<char>>, std::allocator<std::unique_ptr<std::__cxx11::basic_string<char>>>>::_Vector_impl_data" }
%"struct.std::_Vector_base<std::unique_ptr<std::__cxx11::basic_string<char>>, std::allocator<std::unique_ptr<std::__cxx11::basic_string<char>>>>::_Vector_impl_data" = type { ptr, ptr, ptr }
%"class.std::vector.75" = type { %"struct.std::_Vector_base.76" }
%"struct.std::_Vector_base.76" = type { %"struct.std::_Vector_base<std::unique_ptr<LIEF::DEX::Type>, std::allocator<std::unique_ptr<LIEF::DEX::Type>>>::_Vector_impl" }
%"struct.std::_Vector_base<std::unique_ptr<LIEF::DEX::Type>, std::allocator<std::unique_ptr<LIEF::DEX::Type>>>::_Vector_impl" = type { %"struct.std::_Vector_base<std::unique_ptr<LIEF::DEX::Type>, std::allocator<std::unique_ptr<LIEF::DEX::Type>>>::_Vector_impl_data" }
%"struct.std::_Vector_base<std::unique_ptr<LIEF::DEX::Type>, std::allocator<std::unique_ptr<LIEF::DEX::Type>>>::_Vector_impl_data" = type { ptr, ptr, ptr }
%"class.std::vector.80" = type { %"struct.std::_Vector_base.81" }
%"struct.std::_Vector_base.81" = type { %"struct.std::_Vector_base<std::unique_ptr<LIEF::DEX::Prototype>, std::allocator<std::unique_ptr<LIEF::DEX::Prototype>>>::_Vector_impl" }
%"struct.std::_Vector_base<std::unique_ptr<LIEF::DEX::Prototype>, std::allocator<std::unique_ptr<LIEF::DEX::Prototype>>>::_Vector_impl" = type { %"struct.std::_Vector_base<std::unique_ptr<LIEF::DEX::Prototype>, std::allocator<std::unique_ptr<LIEF::DEX::Prototype>>>::_Vector_impl_data" }
%"struct.std::_Vector_base<std::unique_ptr<LIEF::DEX::Prototype>, std::allocator<std::unique_ptr<LIEF::DEX::Prototype>>>::_Vector_impl_data" = type { ptr, ptr, ptr }
%"class.LIEF::DEX::MapList" = type { %"class.LIEF::Object", %"class.std::map" }
%"class.std::map" = type { %"class.std::_Rb_tree" }
%"class.std::_Rb_tree" = type { %"struct.std::_Rb_tree<LIEF::DEX::MapItem::TYPES, std::pair<const LIEF::DEX::MapItem::TYPES, LIEF::DEX::MapItem>, std::_Select1st<std::pair<const LIEF::DEX::MapItem::TYPES, LIEF::DEX::MapItem>>, std::less<LIEF::DEX::MapItem::TYPES>>::_Rb_tree_impl" }
%"struct.std::_Rb_tree<LIEF::DEX::MapItem::TYPES, std::pair<const LIEF::DEX::MapItem::TYPES, LIEF::DEX::MapItem>, std::_Select1st<std::pair<const LIEF::DEX::MapItem::TYPES, LIEF::DEX::MapItem>>, std::less<LIEF::DEX::MapItem::TYPES>>::_Rb_tree_impl" = type { %"struct.std::_Rb_tree_key_compare", %"struct.std::_Rb_tree_header" }
%"struct.std::_Rb_tree_key_compare" = type { %"struct.std::less" }
%"struct.std::less" = type { i8 }
%"struct.std::_Rb_tree_header" = type { %"struct.std::_Rb_tree_node_base", i64 }
%"struct.std::_Rb_tree_node_base" = type { i32, ptr, ptr, ptr }
%"class.std::vector.89" = type { %"struct.std::_Vector_base.90" }
%"struct.std::_Vector_base.90" = type { %"struct.std::_Vector_base<std::unique_ptr<LIEF::DEX::Class>, std::allocator<std::unique_ptr<LIEF::DEX::Class>>>::_Vector_impl" }
%"struct.std::_Vector_base<std::unique_ptr<LIEF::DEX::Class>, std::allocator<std::unique_ptr<LIEF::DEX::Class>>>::_Vector_impl" = type { %"struct.std::_Vector_base<std::unique_ptr<LIEF::DEX::Class>, std::allocator<std::unique_ptr<LIEF::DEX::Class>>>::_Vector_impl_data" }
%"struct.std::_Vector_base<std::unique_ptr<LIEF::DEX::Class>, std::allocator<std::unique_ptr<LIEF::DEX::Class>>>::_Vector_impl_data" = type { ptr, ptr, ptr }
%"class.std::vector.94" = type { %"struct.std::_Vector_base.95" }
%"struct.std::_Vector_base.95" = type { %"struct.std::_Vector_base<unsigned char, std::allocator<unsigned char>>::_Vector_impl" }
%"struct.std::_Vector_base<unsigned char, std::allocator<unsigned char>>::_Vector_impl" = type { %"struct.std::_Vector_base<unsigned char, std::allocator<unsigned char>>::_Vector_impl_data" }
%"struct.std::_Vector_base<unsigned char, std::allocator<unsigned char>>::_Vector_impl_data" = type { ptr, ptr, ptr }
%"class.LIEF::ref_iterator.222" = type { ptr, %"class.__gnu_cxx::__normal_iterator.223", i64 }
%"class.__gnu_cxx::__normal_iterator.223" = type { ptr }

; Function Attrs: mustprogress nounwind uwtable
define linkonce_odr hidden void @_ZN9__gnu_cxx17__normal_iteratorIPKSt10unique_ptrIN4LIEF3DEX9PrototypeESt14default_deleteIS4_EESt6vectorIS7_SaIS7_EEEC2ERKS9_(ptr noundef nonnull align 8 dereferenceable(8) %0, ptr noundef nonnull align 8 dereferenceable(8) %1) unnamed_addr #1 comdat align 2 {
  %3 = alloca ptr, align 8
  %4 = alloca ptr, align 8
  store ptr %0, ptr %3, align 8
  store ptr %1, ptr %4, align 8
  %5 = load ptr, ptr %3, align 8
  %6 = getelementptr inbounds %"class.__gnu_cxx::__normal_iterator.223", ptr %5, i32 0, i32 0
  %7 = load ptr, ptr %4, align 8
  %8 = load ptr, ptr %7, align 8
  store ptr %8, ptr %6, align 8
  ret void
}

; Function Attrs: mustprogress nounwind uwtable
define linkonce_odr hidden ptr @_ZNKSt6vectorISt10unique_ptrIN4LIEF3DEX9PrototypeESt14default_deleteIS3_EESaIS6_EE5beginEv(ptr noundef nonnull align 8 dereferenceable(24) %0) #1 comdat align 2 {
  %2 = alloca %"class.__gnu_cxx::__normal_iterator.223", align 8
  %3 = alloca ptr, align 8
  store ptr %0, ptr %3, align 8
  %4 = load ptr, ptr %3, align 8
  %5 = getelementptr inbounds %"struct.std::_Vector_base.81", ptr %4, i32 0, i32 0
  %6 = getelementptr inbounds %"struct.std::_Vector_base<std::unique_ptr<LIEF::DEX::Prototype>, std::allocator<std::unique_ptr<LIEF::DEX::Prototype>>>::_Vector_impl_data", ptr %5, i32 0, i32 0
  call void @_ZN9__gnu_cxx17__normal_iteratorIPKSt10unique_ptrIN4LIEF3DEX9PrototypeESt14default_deleteIS4_EESt6vectorIS7_SaIS7_EEEC2ERKS9_(ptr noundef nonnull align 8 dereferenceable(8) %2, ptr noundef nonnull align 8 dereferenceable(8) %6) #15
  %7 = getelementptr inbounds %"class.__gnu_cxx::__normal_iterator.223", ptr %2, i32 0, i32 0
  %8 = load ptr, ptr %7, align 8
  ret ptr %8
}

; Function Attrs: mustprogress nounwind uwtable
define linkonce_odr ptr @_ZSt5beginISt6vectorISt10unique_ptrIN4LIEF3DEX9PrototypeESt14default_deleteIS4_EESaIS7_EEEDTcldtfp_5beginEERKT_(ptr noundef nonnull align 8 dereferenceable(24) %0) #1 comdat {
  %2 = alloca %"class.__gnu_cxx::__normal_iterator.223", align 8
  %3 = alloca ptr, align 8
  store ptr %0, ptr %3, align 8
  %4 = load ptr, ptr %3, align 8
  %5 = call ptr @_ZNKSt6vectorISt10unique_ptrIN4LIEF3DEX9PrototypeESt14default_deleteIS3_EESaIS6_EE5beginEv(ptr noundef nonnull align 8 dereferenceable(24) %4) #15
  %6 = getelementptr inbounds %"class.__gnu_cxx::__normal_iterator.223", ptr %2, i32 0, i32 0
  store ptr %5, ptr %6, align 8
  %7 = getelementptr inbounds %"class.__gnu_cxx::__normal_iterator.223", ptr %2, i32 0, i32 0
  %8 = load ptr, ptr %7, align 8
  ret ptr %8
}

; Function Attrs: mustprogress nounwind uwtable
define linkonce_odr hidden void @_ZN9__gnu_cxx17__normal_iteratorIPKSt10unique_ptrIN4LIEF3DEX9PrototypeESt14default_deleteIS4_EESt6vectorIS7_SaIS7_EEEC2Ev(ptr noundef nonnull align 8 dereferenceable(8) %0) unnamed_addr #1 comdat align 2 {
  %2 = alloca ptr, align 8
  store ptr %0, ptr %2, align 8
  %3 = load ptr, ptr %2, align 8
  %4 = getelementptr inbounds %"class.__gnu_cxx::__normal_iterator.223", ptr %3, i32 0, i32 0
  store ptr null, ptr %4, align 8
  ret void
}

; Function Attrs: mustprogress uwtable
define linkonce_odr hidden void @_ZN4LIEF12ref_iteratorIRKSt6vectorISt10unique_ptrINS_3DEX9PrototypeESt14default_deleteIS4_EESaIS7_EEPKS4_N9__gnu_cxx17__normal_iteratorIPKS7_S9_EEEC2ESB_(ptr noundef nonnull align 8 dereferenceable(24) %0, ptr noundef nonnull align 8 dereferenceable(24) %1) unnamed_addr #3 comdat align 2 {
  %3 = alloca ptr, align 8
  %4 = alloca ptr, align 8
  %5 = alloca %"class.__gnu_cxx::__normal_iterator.223", align 8
  store ptr %0, ptr %3, align 8
  store ptr %1, ptr %4, align 8
  %6 = load ptr, ptr %3, align 8
  %7 = getelementptr inbounds %"class.LIEF::ref_iterator.222", ptr %6, i32 0, i32 0
  %8 = load ptr, ptr %4, align 8
  store ptr %8, ptr %7, align 8
  %9 = getelementptr inbounds %"class.LIEF::ref_iterator.222", ptr %6, i32 0, i32 1
  call void @_ZN9__gnu_cxx17__normal_iteratorIPKSt10unique_ptrIN4LIEF3DEX9PrototypeESt14default_deleteIS4_EESt6vectorIS7_SaIS7_EEEC2Ev(ptr noundef nonnull align 8 dereferenceable(8) %9) #15
  %10 = getelementptr inbounds %"class.LIEF::ref_iterator.222", ptr %6, i32 0, i32 2
  store i64 0, ptr %10, align 8
  %11 = getelementptr inbounds %"class.LIEF::ref_iterator.222", ptr %6, i32 0, i32 0
  %12 = load ptr, ptr %11, align 8
  %13 = call ptr @_ZSt5beginISt6vectorISt10unique_ptrIN4LIEF3DEX9PrototypeESt14default_deleteIS4_EESaIS7_EEEDTcldtfp_5beginEERKT_(ptr noundef nonnull align 8 dereferenceable(24) %12)
  %14 = getelementptr inbounds %"class.__gnu_cxx::__normal_iterator.223", ptr %5, i32 0, i32 0
  store ptr %13, ptr %14, align 8
  %15 = getelementptr inbounds %"class.LIEF::ref_iterator.222", ptr %6, i32 0, i32 1
  call void @llvm.memcpy.p0.p0.i64(ptr align 8 %15, ptr align 8 %5, i64 8, i1 false)
  ret void
}

; Function Attrs: mustprogress uwtable
define void @_ZNK4LIEF3DEX4File10prototypesEv(ptr dead_on_unwind noalias writable sret(%"class.LIEF::ref_iterator.222") align 8 %0, ptr noundef nonnull align 8 dereferenceable(472) %1) #3 align 2 {
  %3 = alloca ptr, align 8
  %4 = alloca ptr, align 8
  store ptr %0, ptr %3, align 8
  store ptr %1, ptr %4, align 8
  %5 = load ptr, ptr %4, align 8
  %6 = getelementptr inbounds %"class.LIEF::DEX::File", ptr %5, i32 0, i32 9
  call void @_ZN4LIEF12ref_iteratorIRKSt6vectorISt10unique_ptrINS_3DEX9PrototypeESt14default_deleteIS4_EESaIS7_EEPKS4_N9__gnu_cxx17__normal_iteratorIPKS7_S9_EEEC2ESB_(ptr noundef nonnull align 8 dereferenceable(24) %0, ptr noundef nonnull align 8 dereferenceable(24) %6)
  ret void
}